target datalayout = "e-m:e-p270:32:32-p271:32:32-p272:64:64-i64:64-i128:128-f80:128-n8:16:32:64-S128"
target triple = "x86_64-pc-linux-gnu"

%struct.G726Tables = type { ptr, ptr, ptr, ptr }
%struct.G726Context = type { ptr, %struct.G726Tables, [2 x %struct.Float11], [6 x %struct.Float11], [2 x i32], [6 x i32], [2 x i32], i32, i32, i32, i32, i32, i32, i32, i32, i32, i32, i32 }
%struct.Float11 = type { i8, i8, i8 }

; Function Attrs: cold nounwind optsize uwtable
define internal i32 @g726_reset(ptr noundef %0) #0 {
  %2 = alloca ptr, align 8
  %3 = alloca i32, align 4
  store ptr %0, ptr %2, align 8, !tbaa !29
  call void @llvm.lifetime.start.p0(i64 4, ptr %3) #11
  %4 = load ptr, ptr %2, align 8, !tbaa !29
  %5 = getelementptr inbounds nuw %struct.G726Context, ptr %4, i32 0, i32 1
  %6 = load ptr, ptr %2, align 8, !tbaa !29
  %7 = getelementptr inbounds nuw %struct.G726Context, ptr %6, i32 0, i32 16
  %8 = load i32, ptr %7, align 4, !tbaa !44
  %9 = sub nsw i32 %8, 2
  %10 = sext i32 %9 to i64
  %11 = getelementptr inbounds [4 x %struct.G726Tables], ptr @G726Tables_pool, i64 0, i64 %10
  call void @llvm.memcpy.p0.p0.i64(ptr align 8 %5, ptr align 16 %11, i64 32, i1 false), !tbaa.struct !75
  store i32 0, ptr %3, align 4, !tbaa !46
  br label %12

12:                                               ; preds = %27, %1
  %13 = load i32, ptr %3, align 4, !tbaa !46
  %14 = icmp slt i32 %13, 2
  br i1 %14, label %15, label %30

15:                                               ; preds = %12
  %16 = load ptr, ptr %2, align 8, !tbaa !29
  %17 = getelementptr inbounds nuw %struct.G726Context, ptr %16, i32 0, i32 2
  %18 = load i32, ptr %3, align 4, !tbaa !46
  %19 = sext i32 %18 to i64
  %20 = getelementptr inbounds [2 x %struct.Float11], ptr %17, i64 0, i64 %19
  %21 = getelementptr inbounds nuw %struct.Float11, ptr %20, i32 0, i32 2
  store i8 32, ptr %21, align 1, !tbaa !76
  %22 = load ptr, ptr %2, align 8, !tbaa !29
  %23 = getelementptr inbounds nuw %struct.G726Context, ptr %22, i32 0, i32 6
  %24 = load i32, ptr %3, align 4, !tbaa !46
  %25 = sext i32 %24 to i64
  %26 = getelementptr inbounds [2 x i32], ptr %23, i64 0, i64 %25
  store i32 1, ptr %26, align 4, !tbaa !46
  br label %27

27:                                               ; preds = %15
  %28 = load i32, ptr %3, align 4, !tbaa !46
  %29 = add nsw i32 %28, 1
  store i32 %29, ptr %3, align 4, !tbaa !46
  br label %12, !llvm.loop !78

30:                                               ; preds = %12
  store i32 0, ptr %3, align 4, !tbaa !46
  br label %31

31:                                               ; preds = %41, %30
  %32 = load i32, ptr %3, align 4, !tbaa !46
  %33 = icmp slt i32 %32, 6
  br i1 %33, label %34, label %44

34:                                               ; preds = %31
  %35 = load ptr, ptr %2, align 8, !tbaa !29
  %36 = getelementptr inbounds nuw %struct.G726Context, ptr %35, i32 0, i32 3
  %37 = load i32, ptr %3, align 4, !tbaa !46
  %38 = sext i32 %37 to i64
  %39 = getelementptr inbounds [6 x %struct.Float11], ptr %36, i64 0, i64 %38
  %40 = getelementptr inbounds nuw %struct.Float11, ptr %39, i32 0, i32 2
  store i8 32, ptr %40, align 1, !tbaa !76
  br label %41

41:                                               ; preds = %34
  %42 = load i32, ptr %3, align 4, !tbaa !46
  %43 = add nsw i32 %42, 1
  store i32 %43, ptr %3, align 4, !tbaa !46
  br label %31, !llvm.loop !79

44:                                               ; preds = %31
  %45 = load ptr, ptr %2, align 8, !tbaa !29
  %46 = getelementptr inbounds nuw %struct.G726Context, ptr %45, i32 0, i32 8
  store i32 544, ptr %46, align 4, !tbaa !80
  %47 = load ptr, ptr %2, align 8, !tbaa !29
  %48 = getelementptr inbounds nuw %struct.G726Context, ptr %47, i32 0, i32 9
  store i32 34816, ptr %48, align 8, !tbaa !81
  %49 = load ptr, ptr %2, align 8, !tbaa !29
  %50 = getelementptr inbounds nuw %struct.G726Context, ptr %49, i32 0, i32 15
  store i32 544, ptr %50, align 8, !tbaa !82
  call void @llvm.lifetime.end.p0(i64 4, ptr %3) #11
  ret i32 0
}